target datalayout = "e-m:e-p270:32:32-p271:32:32-p272:64:64-i64:64-i128:128-f80:128-n8:16:32:64-S128"
target triple = "x86_64-pc-linux-gnu"

%struct.Wln_Ntk_t_ = type { ptr, ptr, i32, %struct.Vec_Int_t_, %struct.Vec_Int_t_, %struct.Vec_Int_t_, %struct.Vec_Int_t_, ptr, %struct.Vec_Int_t_, ptr, %struct.Vec_Int_t_, %struct.Vec_Int_t_, ptr, %struct.Vec_Str_t_, i32, %struct.Vec_Int_t_, %struct.Vec_Int_t_, %struct.Vec_Int_t_, %struct.Vec_Int_t_, %struct.Vec_Int_t_, %struct.Vec_Int_t_, %struct.Vec_Int_t_, %struct.Vec_Int_t_, ptr, [99 x i32], [99 x i32] }
%struct.Vec_Str_t_ = type { i32, i32, ptr }
%struct.Vec_Int_t_ = type { i32, i32, ptr }

@.str.11 = private unnamed_addr constant [2 x i8] c"\0A\00", align 1
@.str.144 = private unnamed_addr constant [2 x i8] c"w\00", align 1
@stdout = external global ptr, align 8
@.str.145 = private unnamed_addr constant [51 x i8] c"Wln_WriteVer(): Cannot open the output file \22%s\22.\0A\00", align 1
@.str.146 = private unnamed_addr constant [55 x i8] c"// Benchmark \22%s\22 from file \22%s\22 written by ABC on %s\0A\00", align 1
@.str.147 = private unnamed_addr constant [8 x i8] c"unknown\00", align 1

; Function Attrs: nounwind uwtable
define void @Wln_WriteVer(ptr noundef %0, ptr noundef %1) #0 {
  %3 = alloca ptr, align 8
  %4 = alloca ptr, align 8
  %5 = alloca ptr, align 8
  %6 = alloca i32, align 4
  store ptr %0, ptr %3, align 8, !tbaa !16
  store ptr %1, ptr %4, align 8, !tbaa !40
  call void @llvm.lifetime.start.p0(i64 8, ptr %5) #9
  %7 = load ptr, ptr %4, align 8, !tbaa !40
  %8 = call noalias ptr @fopen(ptr noundef %7, ptr noundef @.str.144)
  store ptr %8, ptr %5, align 8, !tbaa !3
  %9 = load ptr, ptr %5, align 8, !tbaa !3
  %10 = icmp eq ptr %9, null
  br i1 %10, label %11, label %15

11:                                               ; preds = %2
  %12 = load ptr, ptr @stdout, align 8, !tbaa !3
  %13 = load ptr, ptr %4, align 8, !tbaa !40
  %14 = call i32 (ptr, ptr, ...) @fprintf(ptr noundef %12, ptr noundef @.str.145, ptr noundef %13) #9
  store i32 1, ptr %6, align 4
  br label %43

15:                                               ; preds = %2
  %16 = load ptr, ptr %5, align 8, !tbaa !3
  %17 = load ptr, ptr %3, align 8, !tbaa !16
  %18 = getelementptr inbounds nuw %struct.Wln_Ntk_t_, ptr %17, i32 0, i32 0
  %19 = load ptr, ptr %18, align 8, !tbaa !42
  %20 = load ptr, ptr %3, align 8, !tbaa !16
  %21 = getelementptr inbounds nuw %struct.Wln_Ntk_t_, ptr %20, i32 0, i32 1
  %22 = load ptr, ptr %21, align 8, !tbaa !67
  %23 = icmp ne ptr %22, null
  br i1 %23, label %24, label %28

24:                                               ; preds = %15
  %25 = load ptr, ptr %3, align 8, !tbaa !16
  %26 = getelementptr inbounds nuw %struct.Wln_Ntk_t_, ptr %25, i32 0, i32 1
  %27 = load ptr, ptr %26, align 8, !tbaa !67
  br label %29

28:                                               ; preds = %15
  br label %29

29:                                               ; preds = %28, %24
  %30 = phi ptr [ %27, %24 ], [ @.str.147, %28 ]
  %31 = call ptr (...) @Extra_TimeStamp()
  %32 = call i32 (ptr, ptr, ...) @fprintf(ptr noundef %16, ptr noundef @.str.146, ptr noundef %19, ptr noundef %30, ptr noundef %31) #9
  %33 = load ptr, ptr %5, align 8, !tbaa !3
  %34 = call i32 (ptr, ptr, ...) @fprintf(ptr noundef %33, ptr noundef @.str.11) #9
  %35 = load ptr, ptr %5, align 8, !tbaa !3
  %36 = load ptr, ptr %3, align 8, !tbaa !16
  call void @Wln_WriteTables(ptr noundef %35, ptr noundef %36)
  %37 = load ptr, ptr %5, align 8, !tbaa !3
  %38 = load ptr, ptr %3, align 8, !tbaa !16
  call void @Wln_WriteVerInt(ptr noundef %37, ptr noundef %38)
  %39 = load ptr, ptr %5, align 8, !tbaa !3
  %40 = call i32 (ptr, ptr, ...) @fprintf(ptr noundef %39, ptr noundef @.str.11) #9
  %41 = load ptr, ptr %5, align 8, !tbaa !3
  %42 = call i32 @fclose(ptr noundef %41)
  store i32 0, ptr %6, align 4
  br label %43

43:                                               ; preds = %29, %11
  call void @llvm.lifetime.end.p0(i64 8, ptr %5) #9
  %44 = load i32, ptr %6, align 4
  switch i32 %44, label %46 [
    i32 0, label %45
    i32 1, label %45
  ]

45:                                               ; preds = %43, %43
  ret void

46:                                               ; preds = %43
  unreachable
}