; Function Attrs: nounwind uwtable
define void @Wln_WriteVer(ptr noundef %0, ptr noundef %1) local_unnamed_addr #3 {
  %3 = tail call noalias ptr @fopen(ptr noundef %1, ptr noundef nonnull @.str.144)
  %4 = icmp eq ptr %3, null
  br i1 %4, label %5, label %8

5:                                                ; preds = %2
  %6 = load ptr, ptr @stdout, align 8, !tbaa !65
  %7 = tail call i32 (ptr, ptr, ...) @fprintf(ptr noundef %6, ptr noundef nonnull @.str.145, ptr noundef %1) #12
  br label %15

8:                                                ; preds = %2
  %9 = load ptr, ptr %0, align 8, !tbaa !43
  %10 = getelementptr inbounds nuw i8, ptr %0, i64 8
  %11 = load ptr, ptr %10, align 8, !tbaa !67
  %.not = icmp eq ptr %11, null
  %spec.select = select i1 %.not, ptr @.str.147, ptr %11
  %12 = tail call ptr (...) @Extra_TimeStamp() #12
  %13 = tail call i32 (ptr, ptr, ...) @fprintf(ptr noundef nonnull %3, ptr noundef nonnull @.str.146, ptr noundef %9, ptr noundef nonnull %spec.select, ptr noundef %12) #12
  %fputc = tail call i32 @fputc(i32 10, ptr nonnull %3)
  tail call void @Wln_WriteTables(ptr noundef nonnull %3, ptr noundef nonnull %0)
  tail call void @Wln_WriteVerInt(ptr noundef nonnull %3, ptr noundef nonnull %0)
  %fputc15 = tail call i32 @fputc(i32 10, ptr nonnull %3)
  %14 = tail call i32 @fclose(ptr noundef nonnull %3)
  br label %15

15:                                               ; preds = %8, %5
  ret void
}